target datalayout = "e-m:e-p270:32:32-p271:32:32-p272:64:64-i64:64-i128:128-f80:128-n8:16:32:64-S128"
target triple = "x86_64-pc-linux-gnu"

%struct.yyjson_alc = type { ptr, ptr, ptr, ptr }
%struct.dyn_ctx = type { %struct.dyn_chunk, %struct.dyn_chunk }
%struct.dyn_chunk = type { i64, ptr }

@__const.dyn_realloc.def = private unnamed_addr constant %struct.yyjson_alc { ptr @default_malloc, ptr @default_realloc, ptr @default_free, ptr null }, align 8

; Function Attrs: alwaysinline nounwind uwtable
define internal zeroext i1 @size_is_pow2(i64 noundef %0) #4 {
  %2 = alloca i64, align 8
  store i64 %0, ptr %2, align 8, !tbaa !10
  %3 = load i64, ptr %2, align 8, !tbaa !10
  %4 = load i64, ptr %2, align 8, !tbaa !10
  %5 = sub i64 %4, 1
  %6 = and i64 %3, %5
  %7 = icmp eq i64 %6, 0
  ret i1 %7
}

; Function Attrs: alwaysinline nounwind uwtable
define internal i64 @size_align_up(i64 noundef %0, i64 noundef %1) #4 {
  %3 = alloca i64, align 8
  %4 = alloca i64, align 8
  %5 = alloca i64, align 8
  store i64 %0, ptr %4, align 8, !tbaa !10
  store i64 %1, ptr %5, align 8, !tbaa !10
  %6 = load i64, ptr %5, align 8, !tbaa !10
  %7 = call zeroext i1 @size_is_pow2(i64 noundef %6)
  br i1 %7, label %8, label %17

8:                                                ; preds = %2
  %9 = load i64, ptr %4, align 8, !tbaa !10
  %10 = load i64, ptr %5, align 8, !tbaa !10
  %11 = sub i64 %10, 1
  %12 = add i64 %9, %11
  %13 = load i64, ptr %5, align 8, !tbaa !10
  %14 = sub i64 %13, 1
  %15 = xor i64 %14, -1
  %16 = and i64 %12, %15
  store i64 %16, ptr %3, align 8
  br label %29

17:                                               ; preds = %2
  %18 = load i64, ptr %4, align 8, !tbaa !10
  %19 = load i64, ptr %5, align 8, !tbaa !10
  %20 = add i64 %18, %19
  %21 = load i64, ptr %4, align 8, !tbaa !10
  %22 = load i64, ptr %5, align 8, !tbaa !10
  %23 = add i64 %21, %22
  %24 = sub i64 %23, 1
  %25 = load i64, ptr %5, align 8, !tbaa !10
  %26 = urem i64 %24, %25
  %27 = sub i64 %20, %26
  %28 = sub i64 %27, 1
  store i64 %28, ptr %3, align 8
  br label %29

29:                                               ; preds = %17, %8
  %30 = load i64, ptr %3, align 8
  ret i64 %30
}

; Function Attrs: alwaysinline nounwind uwtable
define internal void @dyn_chunk_list_add(ptr noundef %0, ptr noundef %1) #4 {
  %3 = alloca ptr, align 8
  %4 = alloca ptr, align 8
  store ptr %0, ptr %3, align 8, !tbaa !36
  store ptr %1, ptr %4, align 8, !tbaa !36
  %5 = load ptr, ptr %3, align 8, !tbaa !36
  %6 = getelementptr inbounds nuw %struct.dyn_chunk, ptr %5, i32 0, i32 1
  %7 = load ptr, ptr %6, align 8, !tbaa !38
  %8 = load ptr, ptr %4, align 8, !tbaa !36
  %9 = getelementptr inbounds nuw %struct.dyn_chunk, ptr %8, i32 0, i32 1
  store ptr %7, ptr %9, align 8, !tbaa !38
  %10 = load ptr, ptr %4, align 8, !tbaa !36
  %11 = load ptr, ptr %3, align 8, !tbaa !36
  %12 = getelementptr inbounds nuw %struct.dyn_chunk, ptr %11, i32 0, i32 1
  store ptr %10, ptr %12, align 8, !tbaa !38
  ret void
}

; Function Attrs: alwaysinline nounwind uwtable
define internal void @dyn_chunk_list_remove(ptr noundef %0, ptr noundef %1) #4 {
  %3 = alloca ptr, align 8
  %4 = alloca ptr, align 8
  %5 = alloca ptr, align 8
  %6 = alloca ptr, align 8
  %7 = alloca i32, align 4
  store ptr %0, ptr %3, align 8, !tbaa !36
  store ptr %1, ptr %4, align 8, !tbaa !36
  call void @llvm.lifetime.start.p0(i64 8, ptr %5) #13
  %8 = load ptr, ptr %3, align 8, !tbaa !36
  store ptr %8, ptr %5, align 8, !tbaa !36
  call void @llvm.lifetime.start.p0(i64 8, ptr %6) #13
  %9 = load ptr, ptr %5, align 8, !tbaa !36
  %10 = getelementptr inbounds nuw %struct.dyn_chunk, ptr %9, i32 0, i32 1
  %11 = load ptr, ptr %10, align 8, !tbaa !38
  store ptr %11, ptr %6, align 8, !tbaa !36
  br label %12

12:                                               ; preds = %29, %2
  %13 = load ptr, ptr %6, align 8, !tbaa !36
  %14 = icmp ne ptr %13, null
  br i1 %14, label %15, label %33

15:                                               ; preds = %12
  %16 = load ptr, ptr %6, align 8, !tbaa !36
  %17 = load ptr, ptr %4, align 8, !tbaa !36
  %18 = icmp eq ptr %16, %17
  br i1 %18, label %19, label %27

19:                                               ; preds = %15
  %20 = load ptr, ptr %6, align 8, !tbaa !36
  %21 = getelementptr inbounds nuw %struct.dyn_chunk, ptr %20, i32 0, i32 1
  %22 = load ptr, ptr %21, align 8, !tbaa !38
  %23 = load ptr, ptr %5, align 8, !tbaa !36
  %24 = getelementptr inbounds nuw %struct.dyn_chunk, ptr %23, i32 0, i32 1
  store ptr %22, ptr %24, align 8, !tbaa !38
  %25 = load ptr, ptr %6, align 8, !tbaa !36
  %26 = getelementptr inbounds nuw %struct.dyn_chunk, ptr %25, i32 0, i32 1
  store ptr null, ptr %26, align 8, !tbaa !38
  store i32 1, ptr %7, align 4
  br label %34

27:                                               ; preds = %15
  %28 = load ptr, ptr %6, align 8, !tbaa !36
  store ptr %28, ptr %5, align 8, !tbaa !36
  br label %29

29:                                               ; preds = %27
  %30 = load ptr, ptr %6, align 8, !tbaa !36
  %31 = getelementptr inbounds nuw %struct.dyn_chunk, ptr %30, i32 0, i32 1
  %32 = load ptr, ptr %31, align 8, !tbaa !38
  store ptr %32, ptr %6, align 8, !tbaa !36
  br label %12, !llvm.loop !249

33:                                               ; preds = %12
  store i32 0, ptr %7, align 4
  br label %34

34:                                               ; preds = %33, %19
  call void @llvm.lifetime.end.p0(i64 8, ptr %6) #13
  call void @llvm.lifetime.end.p0(i64 8, ptr %5) #13
  %35 = load i32, ptr %7, align 4
  switch i32 %35, label %37 [
    i32 0, label %36
    i32 1, label %36
  ]

36:                                               ; preds = %34, %34
  ret void

37:                                               ; preds = %34
  unreachable
}

; Function Attrs: alwaysinline nounwind uwtable
define internal zeroext i1 @dyn_size_align(ptr noundef %0) #4 {
  %2 = alloca i1, align 1
  %3 = alloca ptr, align 8
  %4 = alloca i64, align 8
  %5 = alloca i32, align 4
  store ptr %0, ptr %3, align 8, !tbaa !107
  call void @llvm.lifetime.start.p0(i64 8, ptr %4) #13
  %6 = load ptr, ptr %3, align 8, !tbaa !107
  %7 = load i64, ptr %6, align 8, !tbaa !10
  %8 = add i64 %7, 16
  store i64 %8, ptr %4, align 8, !tbaa !10
  %9 = load i64, ptr %4, align 8, !tbaa !10
  %10 = call i64 @size_align_up(i64 noundef %9, i64 noundef 4096)
  store i64 %10, ptr %4, align 8, !tbaa !10
  %11 = load i64, ptr %4, align 8, !tbaa !10
  %12 = load ptr, ptr %3, align 8, !tbaa !107
  %13 = load i64, ptr %12, align 8, !tbaa !10
  %14 = icmp ult i64 %11, %13
  %15 = xor i1 %14, true
  %16 = xor i1 %15, true
  %17 = zext i1 %16 to i32
  %18 = sext i32 %17 to i64
  %19 = call i64 @llvm.expect.i64(i64 %18, i64 0)
  %20 = icmp ne i64 %19, 0
  br i1 %20, label %21, label %22

21:                                               ; preds = %1
  store i1 false, ptr %2, align 1
  store i32 1, ptr %5, align 4
  br label %25

22:                                               ; preds = %1
  %23 = load i64, ptr %4, align 8, !tbaa !10
  %24 = load ptr, ptr %3, align 8, !tbaa !107
  store i64 %23, ptr %24, align 8, !tbaa !10
  store i1 true, ptr %2, align 1
  store i32 1, ptr %5, align 4
  br label %25

25:                                               ; preds = %22, %21
  call void @llvm.lifetime.end.p0(i64 8, ptr %4) #13
  %26 = load i1, ptr %2, align 1
  ret i1 %26
}

; Function Attrs: nounwind uwtable
define internal ptr @dyn_realloc(ptr noundef %0, ptr noundef %1, i64 noundef %2, i64 noundef %3) #0 {
  %5 = alloca ptr, align 8
  %6 = alloca ptr, align 8
  %7 = alloca ptr, align 8
  %8 = alloca i64, align 8
  %9 = alloca i64, align 8
  %10 = alloca %struct.yyjson_alc, align 8
  %11 = alloca ptr, align 8
  %12 = alloca ptr, align 8
  %13 = alloca ptr, align 8
  %14 = alloca i32, align 4
  store ptr %0, ptr %6, align 8, !tbaa !9
  store ptr %1, ptr %7, align 8, !tbaa !9
  store i64 %2, ptr %8, align 8, !tbaa !10
  store i64 %3, ptr %9, align 8, !tbaa !10
  call void @llvm.lifetime.start.p0(i64 32, ptr %10) #13
  call void @llvm.memcpy.p0.p0.i64(ptr align 8 %10, ptr align 8 @__const.dyn_realloc.def, i64 32, i1 false)
  call void @llvm.lifetime.start.p0(i64 8, ptr %11) #13
  %15 = load ptr, ptr %6, align 8, !tbaa !9
  store ptr %15, ptr %11, align 8, !tbaa !9
  call void @llvm.lifetime.start.p0(i64 8, ptr %12) #13
  call void @llvm.lifetime.start.p0(i64 8, ptr %13) #13
  %16 = load ptr, ptr %7, align 8, !tbaa !9
  %17 = getelementptr inbounds %struct.dyn_chunk, ptr %16, i64 -1
  store ptr %17, ptr %13, align 8, !tbaa !36
  %18 = call zeroext i1 @dyn_size_align(ptr noundef %9)
  %19 = xor i1 %18, true
  %20 = xor i1 %19, true
  %21 = xor i1 %20, true
  %22 = zext i1 %21 to i32
  %23 = sext i32 %22 to i64
  %24 = call i64 @llvm.expect.i64(i64 %23, i64 0)
  %25 = icmp ne i64 %24, 0
  br i1 %25, label %26, label %27

26:                                               ; preds = %4
  store ptr null, ptr %5, align 8
  store i32 1, ptr %14, align 4
  br label %74

27:                                               ; preds = %4
  %28 = load ptr, ptr %13, align 8, !tbaa !36
  %29 = getelementptr inbounds nuw %struct.dyn_chunk, ptr %28, i32 0, i32 0
  %30 = load i64, ptr %29, align 8, !tbaa !37
  %31 = load i64, ptr %9, align 8, !tbaa !10
  %32 = icmp uge i64 %30, %31
  br i1 %32, label %33, label %35

33:                                               ; preds = %27
  %34 = load ptr, ptr %7, align 8, !tbaa !9
  store ptr %34, ptr %5, align 8
  store i32 1, ptr %14, align 4
  br label %74

35:                                               ; preds = %27
  %36 = load ptr, ptr %11, align 8, !tbaa !9
  %37 = getelementptr inbounds nuw %struct.dyn_ctx, ptr %36, i32 0, i32 1
  %38 = load ptr, ptr %13, align 8, !tbaa !36
  call void @dyn_chunk_list_remove(ptr noundef %37, ptr noundef %38)
  %39 = getelementptr inbounds nuw %struct.yyjson_alc, ptr %10, i32 0, i32 1
  %40 = load ptr, ptr %39, align 8, !tbaa !25
  %41 = getelementptr inbounds nuw %struct.yyjson_alc, ptr %10, i32 0, i32 3
  %42 = load ptr, ptr %41, align 8, !tbaa !27
  %43 = load ptr, ptr %13, align 8, !tbaa !36
  %44 = load ptr, ptr %13, align 8, !tbaa !36
  %45 = getelementptr inbounds nuw %struct.dyn_chunk, ptr %44, i32 0, i32 0
  %46 = load i64, ptr %45, align 8, !tbaa !37
  %47 = load i64, ptr %9, align 8, !tbaa !10
  %48 = call ptr %40(ptr noundef %42, ptr noundef %43, i64 noundef %46, i64 noundef %47)
  store ptr %48, ptr %12, align 8, !tbaa !36
  %49 = load ptr, ptr %12, align 8, !tbaa !36
  %50 = icmp ne ptr %49, null
  %51 = xor i1 %50, true
  %52 = xor i1 %51, true
  %53 = zext i1 %52 to i32
  %54 = sext i32 %53 to i64
  %55 = call i64 @llvm.expect.i64(i64 %54, i64 1)
  %56 = icmp ne i64 %55, 0
  br i1 %56, label %57, label %62

57:                                               ; preds = %35
  %58 = load i64, ptr %9, align 8, !tbaa !10
  %59 = load ptr, ptr %12, align 8, !tbaa !36
  %60 = getelementptr inbounds nuw %struct.dyn_chunk, ptr %59, i32 0, i32 0
  store i64 %58, ptr %60, align 8, !tbaa !37
  %61 = load ptr, ptr %12, align 8, !tbaa !36
  store ptr %61, ptr %13, align 8, !tbaa !36
  br label %62

62:                                               ; preds = %57, %35
  %63 = load ptr, ptr %11, align 8, !tbaa !9
  %64 = getelementptr inbounds nuw %struct.dyn_ctx, ptr %63, i32 0, i32 1
  %65 = load ptr, ptr %13, align 8, !tbaa !36
  call void @dyn_chunk_list_add(ptr noundef %64, ptr noundef %65)
  %66 = load ptr, ptr %12, align 8, !tbaa !36
  %67 = icmp ne ptr %66, null
  br i1 %67, label %68, label %71

68:                                               ; preds = %62
  %69 = load ptr, ptr %12, align 8, !tbaa !36
  %70 = getelementptr inbounds %struct.dyn_chunk, ptr %69, i64 1
  br label %72

71:                                               ; preds = %62
  br label %72

72:                                               ; preds = %71, %68
  %73 = phi ptr [ %70, %68 ], [ null, %71 ]
  store ptr %73, ptr %5, align 8
  store i32 1, ptr %14, align 4
  br label %74

74:                                               ; preds = %72, %33, %26
  call void @llvm.lifetime.end.p0(i64 8, ptr %13) #13
  call void @llvm.lifetime.end.p0(i64 8, ptr %12) #13
  call void @llvm.lifetime.end.p0(i64 8, ptr %11) #13
  call void @llvm.lifetime.end.p0(i64 32, ptr %10) #13
  %75 = load ptr, ptr %5, align 8
  ret ptr %75
}