; Function Attrs: nounwind uwtable
define internal ptr @dyn_realloc(ptr noundef captures(none) %0, ptr noundef %1, i64 %2, i64 noundef %3) #8 {
  %5 = getelementptr inbounds i8, ptr %1, i64 -16
  %6 = add i64 %3, 4111
  %7 = and i64 %6, -4096
  %.not27 = icmp ult i64 %7, %3
  br i1 %.not27, label %dyn_size_align.exit, label %8, !prof !4

8:                                                ; preds = %4
  %9 = load i64, ptr %5, align 8, !tbaa !33
  %.not = icmp ult i64 %9, %7
  br i1 %.not, label %10, label %dyn_size_align.exit

10:                                               ; preds = %8
  %11 = getelementptr inbounds nuw i8, ptr %0, i64 16
  br label %12

12:                                               ; preds = %13, %10
  %.010.i = phi ptr [ %11, %10 ], [ %.0.i, %13 ]
  %.0.in.i = getelementptr inbounds nuw i8, ptr %.010.i, i64 8
  %.0.i = load ptr, ptr %.0.in.i, align 8, !tbaa !34
  %.not.i = icmp eq ptr %.0.i, null
  br i1 %.not.i, label %dyn_chunk_list_remove.exit, label %13

13:                                               ; preds = %12
  %14 = icmp eq ptr %.0.i, %5
  br i1 %14, label %15, label %12, !llvm.loop !35

15:                                               ; preds = %13
  %.0.in.i.le = getelementptr inbounds nuw i8, ptr %.010.i, i64 8
  %16 = getelementptr inbounds nuw i8, ptr %.0.i, i64 8
  %17 = load ptr, ptr %16, align 8, !tbaa !34
  store ptr %17, ptr %.0.in.i.le, align 8, !tbaa !34
  store ptr null, ptr %16, align 8, !tbaa !34
  br label %dyn_chunk_list_remove.exit

dyn_chunk_list_remove.exit:                       ; preds = %12, %15
  %18 = tail call noalias noundef ptr @realloc(ptr noundef nonnull %5, i64 noundef %7) #30
  %.not19 = icmp eq ptr %18, null
  br i1 %.not19, label %20, label %19, !prof !4

19:                                               ; preds = %dyn_chunk_list_remove.exit
  store i64 %7, ptr %18, align 8, !tbaa !33
  br label %20

20:                                               ; preds = %19, %dyn_chunk_list_remove.exit
  %.0 = phi ptr [ %18, %19 ], [ %5, %dyn_chunk_list_remove.exit ]
  %21 = getelementptr inbounds nuw i8, ptr %0, i64 24
  %22 = load ptr, ptr %21, align 8, !tbaa !34
  %23 = getelementptr inbounds nuw i8, ptr %.0, i64 8
  store ptr %22, ptr %23, align 8, !tbaa !34
  store ptr %.0, ptr %21, align 8, !tbaa !34
  %24 = getelementptr inbounds nuw i8, ptr %18, i64 16
  %25 = select i1 %.not19, ptr null, ptr %24
  br label %dyn_size_align.exit

dyn_size_align.exit:                              ; preds = %4, %8, %20
  %.017 = phi ptr [ %25, %20 ], [ %1, %8 ], [ null, %4 ]
  ret ptr %.017
}